target datalayout = "e-m:e-p270:32:32-p271:32:32-p272:64:64-i64:64-i128:128-f80:128-n8:16:32:64-S128"
target triple = "x86_64-pc-linux-gnu"

%struct.BuildTarget = type { i32, ptr, ptr, ptr, ptr, ptr, ptr, ptr, ptr, ptr, ptr, ptr, ptr, ptr, ptr, ptr, ptr, ptr, ptr, i8, i8, i8, i8, i8, i8, i8, i8, i8, i8, i8, i8, i8, i8, i8, i8, i8, i8, i8, i8, i32, i32, i32, i32, i32, i32, i32, i32, i32, i32, i32, i32, i32, i32, i32, i32, i32, i32, ptr, ptr, ptr, ptr, ptr, ptr, ptr, ptr, ptr, ptr, %struct.anon.86, %struct.anon.87, %struct.anon.88, %struct.anon.89 }
%struct.anon.86 = type { i16, i32, i32, i32 }
%struct.anon.87 = type { ptr, ptr, ptr, ptr }
%struct.anon.88 = type { ptr, ptr, i32, i8 }
%struct.anon.89 = type { ptr, ptr }
%struct.GlobalContext = type { %struct.HTable, ptr, ptr, ptr, ptr, ptr, ptr, ptr, ptr, i8, i32, i32, i32, ptr, ptr, %struct.HTable, %struct.HTable, %struct.Module_, %struct.DeclTable, %struct.DeclTable, %struct.Path_, ptr, ptr, ptr, ptr, ptr, ptr, ptr, [65536 x ptr], ptr, ptr, ptr }
%struct.HTable = type { i32, ptr }
%struct.Module_ = type { ptr, ptr, ptr, i16, i32, ptr, %struct.HTable, ptr, ptr, ptr, ptr, ptr, ptr, ptr, ptr, ptr }
%struct.DeclTable = type { i32, i32, i32, ptr }
%struct.Path_ = type { %union.SourceSpan, ptr, i32 }
%union.SourceSpan = type { i64 }
%struct.GenContext_ = type { i8, ptr, ptr, ptr, ptr, ptr, ptr, ptr, ptr, ptr, ptr, ptr, ptr, ptr, ptr, ptr, ptr, ptr, ptr, ptr, ptr, ptr, ptr, ptr, ptr, ptr, ptr, ptr, ptr, ptr, ptr, ptr, ptr, %struct.anon.85, i32, i32, %struct.DebugContext, ptr, ptr, ptr, %struct.BEValue, i8, %union.SourceSpan, ptr, ptr, ptr, ptr }
%struct.anon.85 = type { ptr, ptr, ptr }
%struct.DebugContext = type { i16, ptr, ptr, %struct.DebugFile_, ptr, ptr, ptr, ptr }
%struct.DebugFile_ = type { i16, ptr }
%struct.BEValue = type { i8, i32, ptr, ptr, ptr }
%struct.Decl_ = type { ptr, ptr, %union.SourceSpan, i64, %union.anon, i32, %union.anon.0, i64, ptr, ptr, ptr, %union.anon.1 }
%union.anon = type { ptr }
%union.anon.0 = type { i16 }
%union.anon.1 = type { %struct.FuncDecl }
%struct.FuncDecl = type { i32, [4 x i8], %struct.Signature_, i32, i32, %union.anon.8 }
%struct.Signature_ = type <{ %struct.CalleeAttributes, i16, i8, i32, i32, [4 x i8], ptr }>
%struct.CalleeAttributes = type { i8 }
%union.anon.8 = type { %struct.anon.9 }
%struct.anon.9 = type { i16, %union.anon.10 }
%union.anon.10 = type { ptr }

@active_target = external global %struct.BuildTarget, align 8
@kw_main = external global ptr, align 8
@global_context = external global %struct.GlobalContext, align 8
@.str.35 = private unnamed_addr constant [1 x i8] zeroinitializer, align 1
@.str.170 = private unnamed_addr constant [27 x i8] c"No benchmark runner found.\00", align 1
@type_cint = external global ptr, align 8
@.str.171 = private unnamed_addr constant [6 x i8] c"entry\00", align 1

; Function Attrs: nounwind uwtable
define dso_local ptr @llvm_create_builder(ptr noundef %0) #0 {
  %2 = alloca ptr, align 8
  %3 = alloca ptr, align 8
  store ptr %0, ptr %2, align 8
  %4 = load ptr, ptr %2, align 8
  %5 = getelementptr inbounds %struct.GenContext_, ptr %4, i32 0, i32 5
  %6 = load ptr, ptr %5, align 8
  %7 = call ptr @LLVMCreateBuilderInContext(ptr noundef %6)
  store ptr %7, ptr %3, align 8
  %8 = load ptr, ptr %3, align 8
  %9 = load i32, ptr getelementptr inbounds (%struct.BuildTarget, ptr @active_target, i32 0, i32 67, i32 1), align 4
  call void @LLVMBuilderSetFastMathFlags(ptr noundef %8, i32 noundef %9)
  %10 = load ptr, ptr %3, align 8
  ret ptr %10
}

; Function Attrs: nounwind uwtable
define internal void @llvm_gen_benchmark_main(ptr noundef %0) #0 {
  %2 = alloca ptr, align 8
  %3 = alloca ptr, align 8
  %4 = alloca ptr, align 8
  %5 = alloca ptr, align 8
  %6 = alloca ptr, align 8
  %7 = alloca ptr, align 8
  %8 = alloca ptr, align 8
  %9 = alloca ptr, align 8
  %10 = alloca ptr, align 8
  %11 = alloca ptr, align 8
  store ptr %0, ptr %2, align 8
  %12 = load ptr, ptr getelementptr inbounds (%struct.GlobalContext, ptr @global_context, i32 0, i32 27), align 8
  store ptr %12, ptr %3, align 8
  %13 = load ptr, ptr %3, align 8
  %14 = icmp ne ptr %13, null
  br i1 %14, label %16, label %15

15:                                               ; preds = %1
  call void (ptr, ...) @error_exit(ptr noundef @.str.170) #9
  unreachable

16:                                               ; preds = %1
  %17 = load ptr, ptr %3, align 8
  store ptr %17, ptr getelementptr inbounds (%struct.GlobalContext, ptr @global_context, i32 0, i32 25), align 8
  %18 = load ptr, ptr %2, align 8
  %19 = load ptr, ptr @type_cint, align 8
  %20 = call ptr @llvm_get_type(ptr noundef %18, ptr noundef %19)
  store ptr %20, ptr %4, align 8
  %21 = load ptr, ptr %4, align 8
  %22 = call ptr @LLVMFunctionType(ptr noundef %21, ptr noundef null, i32 noundef 0, i32 noundef 1)
  store ptr %22, ptr %5, align 8
  %23 = load ptr, ptr %2, align 8
  %24 = getelementptr inbounds %struct.GenContext_, ptr %23, i32 0, i32 21
  %25 = load ptr, ptr %24, align 8
  %26 = call ptr @LLVMFunctionType(ptr noundef %25, ptr noundef null, i32 noundef 0, i32 noundef 1)
  store ptr %26, ptr %6, align 8
  %27 = load ptr, ptr %2, align 8
  %28 = getelementptr inbounds %struct.GenContext_, ptr %27, i32 0, i32 1
  %29 = load ptr, ptr %28, align 8
  %30 = load ptr, ptr @kw_main, align 8
  %31 = load ptr, ptr %5, align 8
  %32 = call ptr @LLVMAddFunction(ptr noundef %29, ptr noundef %30, ptr noundef %31)
  store ptr %32, ptr %7, align 8
  %33 = load ptr, ptr %2, align 8
  %34 = getelementptr inbounds %struct.GenContext_, ptr %33, i32 0, i32 1
  %35 = load ptr, ptr %34, align 8
  %36 = load ptr, ptr %3, align 8
  %37 = getelementptr inbounds %struct.Decl_, ptr %36, i32 0, i32 1
  %38 = load ptr, ptr %37, align 8
  %39 = load ptr, ptr %6, align 8
  %40 = call ptr @LLVMAddFunction(ptr noundef %35, ptr noundef %38, ptr noundef %39)
  store ptr %40, ptr %8, align 8
  %41 = load ptr, ptr %2, align 8
  %42 = getelementptr inbounds %struct.GenContext_, ptr %41, i32 0, i32 5
  %43 = load ptr, ptr %42, align 8
  %44 = load ptr, ptr %7, align 8
  %45 = call ptr @LLVMAppendBasicBlockInContext(ptr noundef %43, ptr noundef %44, ptr noundef @.str.171)
  store ptr %45, ptr %9, align 8
  %46 = load ptr, ptr %2, align 8
  %47 = call ptr @llvm_create_builder(ptr noundef %46)
  store ptr %47, ptr %10, align 8
  %48 = load ptr, ptr %10, align 8
  %49 = load ptr, ptr %9, align 8
  call void @LLVMPositionBuilderAtEnd(ptr noundef %48, ptr noundef %49)
  %50 = load ptr, ptr %10, align 8
  %51 = load ptr, ptr %6, align 8
  %52 = load ptr, ptr %8, align 8
  %53 = call ptr @LLVMBuildCall2(ptr noundef %50, ptr noundef %51, ptr noundef %52, ptr noundef null, i32 noundef 0, ptr noundef @.str.35)
  store ptr %53, ptr %11, align 8
  %54 = load ptr, ptr %10, align 8
  %55 = load ptr, ptr %10, align 8
  %56 = load ptr, ptr %11, align 8
  %57 = load ptr, ptr %2, align 8
  %58 = getelementptr inbounds %struct.GenContext_, ptr %57, i32 0, i32 20
  %59 = load ptr, ptr %58, align 8
  %60 = call ptr @LLVMBuildTrunc(ptr noundef %55, ptr noundef %56, ptr noundef %59, ptr noundef @.str.35)
  %61 = load ptr, ptr %4, align 8
  %62 = call ptr @LLVMConstNull(ptr noundef %61)
  %63 = load ptr, ptr %4, align 8
  %64 = call ptr @LLVMConstInt(ptr noundef %63, i64 noundef 1, i32 noundef 0)
  %65 = call ptr @LLVMBuildSelect(ptr noundef %54, ptr noundef %60, ptr noundef %62, ptr noundef %64, ptr noundef @.str.35)
  store ptr %65, ptr %11, align 8
  %66 = load ptr, ptr %10, align 8
  %67 = load ptr, ptr %11, align 8
  %68 = call ptr @LLVMBuildRet(ptr noundef %66, ptr noundef %67)
  %69 = load ptr, ptr %10, align 8
  call void @LLVMDisposeBuilder(ptr noundef %69)
  ret void
}